target datalayout = "e-m:e-p270:32:32-p271:32:32-p272:64:64-i64:64-i128:128-f80:128-n8:16:32:64-S128"
target triple = "x86_64-pc-linux-gnu"

%struct.SS = type { i32, i8 }

@.str.4 = private unnamed_addr constant [29 x i8] c"../openssl/test/stack_test.c\00", align 1
@.str.8 = private unnamed_addr constant [2 x i8] c"i\00", align 1
@.str.10 = private unnamed_addr constant [2 x i8] c"n\00", align 1
@.str.44 = private unnamed_addr constant [5 x i8] c"v[i]\00", align 1
@.str.45 = private unnamed_addr constant [13 x i8] c"sk_SS_num(s)\00", align 1
@.str.46 = private unnamed_addr constant [17 x i8] c"SS stack size %d\00", align 1
@.str.47 = private unnamed_addr constant [2 x i8] c"r\00", align 1
@.str.48 = private unnamed_addr constant [2 x i8] c"p\00", align 1
@.str.49 = private unnamed_addr constant [24 x i8] c"SS deepcopy non-copy %d\00", align 1
@.str.50 = private unnamed_addr constant [5 x i8] c"p->n\00", align 1
@.str.51 = private unnamed_addr constant [8 x i8] c"v[i]->n\00", align 1
@.str.52 = private unnamed_addr constant [24 x i8] c"test SS deepcopy int %d\00", align 1
@.str.53 = private unnamed_addr constant [5 x i8] c"p->c\00", align 1
@.str.54 = private unnamed_addr constant [8 x i8] c"v[i]->c\00", align 1
@.str.55 = private unnamed_addr constant [20 x i8] c"SS deepcopy char %d\00", align 1
@.str.56 = private unnamed_addr constant [6 x i8] c"n - 1\00", align 1
@.str.57 = private unnamed_addr constant [18 x i8] c"sk_SS_value(s, i)\00", align 1
@.str.58 = private unnamed_addr constant [17 x i8] c"v[i<3 ? i : 1+i]\00", align 1
@.str.59 = private unnamed_addr constant [22 x i8] c"SS delete ptr item %d\00", align 1

; Function Attrs: nounwind uwtable
define internal void @SS_free(ptr noundef %0) #0 {
  %2 = alloca ptr, align 8
  store ptr %0, ptr %2, align 8, !tbaa !35
  %3 = load ptr, ptr %2, align 8, !tbaa !35
  call void @CRYPTO_free(ptr noundef %3, ptr noundef @.str.4, i32 noundef 268)
  ret void
}

; Function Attrs: inlinehint nounwind uwtable
define internal ptr @sk_SS_delete_ptr(ptr noundef %0, ptr noundef %1) #3 {
  %3 = alloca ptr, align 8
  %4 = alloca ptr, align 8
  store ptr %0, ptr %3, align 8, !tbaa !33
  store ptr %1, ptr %4, align 8, !tbaa !35
  %5 = load ptr, ptr %3, align 8, !tbaa !33
  %6 = load ptr, ptr %4, align 8, !tbaa !35
  %7 = call ptr @OPENSSL_sk_delete_ptr(ptr noundef %5, ptr noundef %6)
  ret ptr %7
}

; Function Attrs: inlinehint nounwind uwtable
define internal void @sk_SS_pop_free(ptr noundef %0, ptr noundef %1) #3 {
  %3 = alloca ptr, align 8
  %4 = alloca ptr, align 8
  store ptr %0, ptr %3, align 8, !tbaa !33
  store ptr %1, ptr %4, align 8, !tbaa !35
  %5 = load ptr, ptr %3, align 8, !tbaa !33
  %6 = load ptr, ptr %4, align 8, !tbaa !35
  call void @OPENSSL_sk_pop_free(ptr noundef %5, ptr noundef %6)
  ret void
}

; Function Attrs: inlinehint nounwind uwtable
define internal ptr @sk_SS_value(ptr noundef %0, i32 noundef %1) #3 {
  %3 = alloca ptr, align 8
  %4 = alloca i32, align 4
  store ptr %0, ptr %3, align 8, !tbaa !33
  store i32 %1, ptr %4, align 4, !tbaa !4
  %5 = load ptr, ptr %3, align 8, !tbaa !33
  %6 = load i32, ptr %4, align 4, !tbaa !4
  %7 = call ptr @OPENSSL_sk_value(ptr noundef %5, i32 noundef %6)
  ret ptr %7
}

; Function Attrs: inlinehint nounwind uwtable
define internal void @sk_SS_free(ptr noundef %0) #3 {
  %2 = alloca ptr, align 8
  store ptr %0, ptr %2, align 8, !tbaa !33
  %3 = load ptr, ptr %2, align 8, !tbaa !33
  call void @OPENSSL_sk_free(ptr noundef %3)
  ret void
}

; Function Attrs: inlinehint nounwind uwtable
define internal ptr @sk_SS_deep_copy(ptr noundef %0, ptr noundef %1, ptr noundef %2) #3 {
  %4 = alloca ptr, align 8
  %5 = alloca ptr, align 8
  %6 = alloca ptr, align 8
  store ptr %0, ptr %4, align 8, !tbaa !33
  store ptr %1, ptr %5, align 8, !tbaa !35
  store ptr %2, ptr %6, align 8, !tbaa !35
  %7 = load ptr, ptr %4, align 8, !tbaa !33
  %8 = load ptr, ptr %5, align 8, !tbaa !35
  %9 = load ptr, ptr %6, align 8, !tbaa !35
  %10 = call ptr @OPENSSL_sk_deep_copy(ptr noundef %7, ptr noundef %8, ptr noundef %9)
  ret ptr %10
}

; Function Attrs: inlinehint nounwind uwtable
define internal i32 @sk_SS_push(ptr noundef %0, ptr noundef %1) #3 {
  %3 = alloca ptr, align 8
  %4 = alloca ptr, align 8
  store ptr %0, ptr %3, align 8, !tbaa !33
  store ptr %1, ptr %4, align 8, !tbaa !35
  %5 = load ptr, ptr %3, align 8, !tbaa !33
  %6 = load ptr, ptr %4, align 8, !tbaa !35
  %7 = call i32 @OPENSSL_sk_push(ptr noundef %5, ptr noundef %6)
  ret i32 %7
}

; Function Attrs: inlinehint nounwind uwtable
define internal i32 @sk_SS_num(ptr noundef %0) #3 {
  %2 = alloca ptr, align 8
  store ptr %0, ptr %2, align 8, !tbaa !33
  %3 = load ptr, ptr %2, align 8, !tbaa !33
  %4 = call i32 @OPENSSL_sk_num(ptr noundef %3)
  ret i32 %4
}

; Function Attrs: inlinehint nounwind uwtable
define internal ptr @sk_SS_new_null() #3 {
  %1 = call ptr @OPENSSL_sk_new_null()
  ret ptr %1
}

; Function Attrs: nounwind uwtable
define internal i32 @test_SS_stack() #0 {
  %1 = alloca ptr, align 8
  %2 = alloca ptr, align 8
  %3 = alloca [10 x ptr], align 16
  %4 = alloca ptr, align 8
  %5 = alloca i32, align 4
  %6 = alloca i32, align 4
  %7 = alloca i32, align 4
  call void @llvm.lifetime.start.p0(i64 8, ptr %1) #5
  %8 = call ptr @sk_SS_new_null()
  store ptr %8, ptr %1, align 8, !tbaa !33
  call void @llvm.lifetime.start.p0(i64 8, ptr %2) #5
  store ptr null, ptr %2, align 8, !tbaa !33
  call void @llvm.lifetime.start.p0(i64 80, ptr %3) #5
  call void @llvm.lifetime.start.p0(i64 8, ptr %4) #5
  call void @llvm.lifetime.start.p0(i64 4, ptr %5) #5
  store i32 10, ptr %5, align 4, !tbaa !4
  call void @llvm.lifetime.start.p0(i64 4, ptr %6) #5
  call void @llvm.lifetime.start.p0(i64 4, ptr %7) #5
  store i32 0, ptr %7, align 4, !tbaa !4
  store i32 0, ptr %6, align 4, !tbaa !4
  br label %9

9:                                                ; preds = %53, %0
  %10 = load i32, ptr %6, align 4, !tbaa !4
  %11 = icmp slt i32 %10, 10
  br i1 %11, label %12, label %56

12:                                               ; preds = %9
  %13 = call noalias ptr @CRYPTO_malloc(i64 noundef 8, ptr noundef @.str.4, i32 noundef 282)
  %14 = load i32, ptr %6, align 4, !tbaa !4
  %15 = sext i32 %14 to i64
  %16 = getelementptr inbounds [10 x ptr], ptr %3, i64 0, i64 %15
  store ptr %13, ptr %16, align 8, !tbaa !35
  %17 = load i32, ptr %6, align 4, !tbaa !4
  %18 = sext i32 %17 to i64
  %19 = getelementptr inbounds [10 x ptr], ptr %3, i64 0, i64 %18
  %20 = load ptr, ptr %19, align 8, !tbaa !35
  %21 = call i32 @test_ptr(ptr noundef @.str.4, i32 noundef 284, ptr noundef @.str.44, ptr noundef %20)
  %22 = icmp ne i32 %21, 0
  br i1 %22, label %24, label %23

23:                                               ; preds = %12
  br label %171

24:                                               ; preds = %12
  %25 = load i32, ptr %6, align 4, !tbaa !4
  %26 = load i32, ptr %6, align 4, !tbaa !4
  %27 = sext i32 %26 to i64
  %28 = getelementptr inbounds [10 x ptr], ptr %3, i64 0, i64 %27
  %29 = load ptr, ptr %28, align 8, !tbaa !35
  %30 = getelementptr inbounds nuw %struct.SS, ptr %29, i32 0, i32 0
  store i32 %25, ptr %30, align 4, !tbaa !36
  %31 = load i32, ptr %6, align 4, !tbaa !4
  %32 = add nsw i32 65, %31
  %33 = trunc i32 %32 to i8
  %34 = load i32, ptr %6, align 4, !tbaa !4
  %35 = sext i32 %34 to i64
  %36 = getelementptr inbounds [10 x ptr], ptr %3, i64 0, i64 %35
  %37 = load ptr, ptr %36, align 8, !tbaa !35
  %38 = getelementptr inbounds nuw %struct.SS, ptr %37, i32 0, i32 1
  store i8 %33, ptr %38, align 4, !tbaa !38
  %39 = load ptr, ptr %1, align 8, !tbaa !33
  %40 = call i32 @sk_SS_num(ptr noundef %39)
  %41 = load i32, ptr %6, align 4, !tbaa !4
  %42 = call i32 @test_int_eq(ptr noundef @.str.4, i32 noundef 288, ptr noundef @.str.45, ptr noundef @.str.8, i32 noundef %40, i32 noundef %41)
  %43 = icmp ne i32 %42, 0
  br i1 %43, label %46, label %44

44:                                               ; preds = %24
  %45 = load i32, ptr %6, align 4, !tbaa !4
  call void (ptr, i32, ptr, ...) @test_info(ptr noundef @.str.4, i32 noundef 289, ptr noundef @.str.46, i32 noundef %45)
  br label %171

46:                                               ; preds = %24
  %47 = load ptr, ptr %1, align 8, !tbaa !33
  %48 = load i32, ptr %6, align 4, !tbaa !4
  %49 = sext i32 %48 to i64
  %50 = getelementptr inbounds [10 x ptr], ptr %3, i64 0, i64 %49
  %51 = load ptr, ptr %50, align 8, !tbaa !35
  %52 = call i32 @sk_SS_push(ptr noundef %47, ptr noundef %51)
  br label %53

53:                                               ; preds = %46
  %54 = load i32, ptr %6, align 4, !tbaa !4
  %55 = add nsw i32 %54, 1
  store i32 %55, ptr %6, align 4, !tbaa !4
  br label %9, !llvm.loop !39

56:                                               ; preds = %9
  %57 = load ptr, ptr %1, align 8, !tbaa !33
  %58 = call i32 @sk_SS_num(ptr noundef %57)
  %59 = call i32 @test_int_eq(ptr noundef @.str.4, i32 noundef 294, ptr noundef @.str.45, ptr noundef @.str.10, i32 noundef %58, i32 noundef 10)
  %60 = icmp ne i32 %59, 0
  br i1 %60, label %62, label %61

61:                                               ; preds = %56
  br label %171

62:                                               ; preds = %56
  %63 = call ptr @sk_SS_deep_copy(ptr noundef null, ptr noundef @SS_copy, ptr noundef @SS_free)
  store ptr %63, ptr %2, align 8, !tbaa !33
  %64 = load ptr, ptr %2, align 8, !tbaa !33
  %65 = call i32 @sk_SS_num(ptr noundef %64)
  %66 = icmp ne i32 %65, 0
  br i1 %66, label %67, label %68

67:                                               ; preds = %62
  br label %171

68:                                               ; preds = %62
  %69 = load ptr, ptr %2, align 8, !tbaa !33
  call void @sk_SS_free(ptr noundef %69)
  %70 = load ptr, ptr %1, align 8, !tbaa !33
  %71 = call ptr @sk_SS_deep_copy(ptr noundef %70, ptr noundef @SS_copy, ptr noundef @SS_free)
  store ptr %71, ptr %2, align 8, !tbaa !33
  %72 = load ptr, ptr %2, align 8, !tbaa !33
  %73 = call i32 @test_ptr(ptr noundef @.str.4, i32 noundef 303, ptr noundef @.str.47, ptr noundef %72)
  %74 = icmp ne i32 %73, 0
  br i1 %74, label %76, label %75

75:                                               ; preds = %68
  br label %171

76:                                               ; preds = %68
  store i32 0, ptr %6, align 4, !tbaa !4
  br label %77

77:                                               ; preds = %122, %76
  %78 = load i32, ptr %6, align 4, !tbaa !4
  %79 = icmp slt i32 %78, 10
  br i1 %79, label %80, label %125

80:                                               ; preds = %77
  %81 = load ptr, ptr %2, align 8, !tbaa !33
  %82 = load i32, ptr %6, align 4, !tbaa !4
  %83 = call ptr @sk_SS_value(ptr noundef %81, i32 noundef %82)
  store ptr %83, ptr %4, align 8, !tbaa !35
  %84 = load ptr, ptr %4, align 8, !tbaa !35
  %85 = load i32, ptr %6, align 4, !tbaa !4
  %86 = sext i32 %85 to i64
  %87 = getelementptr inbounds [10 x ptr], ptr %3, i64 0, i64 %86
  %88 = load ptr, ptr %87, align 8, !tbaa !35
  %89 = call i32 @test_ptr_ne(ptr noundef @.str.4, i32 noundef 307, ptr noundef @.str.48, ptr noundef @.str.44, ptr noundef %84, ptr noundef %88)
  %90 = icmp ne i32 %89, 0
  br i1 %90, label %93, label %91

91:                                               ; preds = %80
  %92 = load i32, ptr %6, align 4, !tbaa !4
  call void (ptr, i32, ptr, ...) @test_info(ptr noundef @.str.4, i32 noundef 308, ptr noundef @.str.49, i32 noundef %92)
  br label %171

93:                                               ; preds = %80
  %94 = load ptr, ptr %4, align 8, !tbaa !35
  %95 = getelementptr inbounds nuw %struct.SS, ptr %94, i32 0, i32 0
  %96 = load i32, ptr %95, align 4, !tbaa !36
  %97 = load i32, ptr %6, align 4, !tbaa !4
  %98 = sext i32 %97 to i64
  %99 = getelementptr inbounds [10 x ptr], ptr %3, i64 0, i64 %98
  %100 = load ptr, ptr %99, align 8, !tbaa !35
  %101 = getelementptr inbounds nuw %struct.SS, ptr %100, i32 0, i32 0
  %102 = load i32, ptr %101, align 4, !tbaa !36
  %103 = call i32 @test_int_eq(ptr noundef @.str.4, i32 noundef 311, ptr noundef @.str.50, ptr noundef @.str.51, i32 noundef %96, i32 noundef %102)
  %104 = icmp ne i32 %103, 0
  br i1 %104, label %107, label %105

105:                                              ; preds = %93
  %106 = load i32, ptr %6, align 4, !tbaa !4
  call void (ptr, i32, ptr, ...) @test_info(ptr noundef @.str.4, i32 noundef 312, ptr noundef @.str.52, i32 noundef %106)
  br label %171

107:                                              ; preds = %93
  %108 = load ptr, ptr %4, align 8, !tbaa !35
  %109 = getelementptr inbounds nuw %struct.SS, ptr %108, i32 0, i32 1
  %110 = load i8, ptr %109, align 4, !tbaa !38
  %111 = load i32, ptr %6, align 4, !tbaa !4
  %112 = sext i32 %111 to i64
  %113 = getelementptr inbounds [10 x ptr], ptr %3, i64 0, i64 %112
  %114 = load ptr, ptr %113, align 8, !tbaa !35
  %115 = getelementptr inbounds nuw %struct.SS, ptr %114, i32 0, i32 1
  %116 = load i8, ptr %115, align 4, !tbaa !38
  %117 = call i32 @test_char_eq(ptr noundef @.str.4, i32 noundef 315, ptr noundef @.str.53, ptr noundef @.str.54, i8 noundef signext %110, i8 noundef signext %116)
  %118 = icmp ne i32 %117, 0
  br i1 %118, label %121, label %119

119:                                              ; preds = %107
  %120 = load i32, ptr %6, align 4, !tbaa !4
  call void (ptr, i32, ptr, ...) @test_info(ptr noundef @.str.4, i32 noundef 316, ptr noundef @.str.55, i32 noundef %120)
  br label %171

121:                                              ; preds = %107
  br label %122

122:                                              ; preds = %121
  %123 = load i32, ptr %6, align 4, !tbaa !4
  %124 = add nsw i32 %123, 1
  store i32 %124, ptr %6, align 4, !tbaa !4
  br label %77, !llvm.loop !40

125:                                              ; preds = %77
  %126 = load ptr, ptr %2, align 8, !tbaa !33
  call void @sk_SS_pop_free(ptr noundef %126, ptr noundef @SS_free)
  store ptr null, ptr %2, align 8, !tbaa !33
  %127 = load ptr, ptr %1, align 8, !tbaa !33
  %128 = getelementptr inbounds [10 x ptr], ptr %3, i64 0, i64 3
  %129 = load ptr, ptr %128, align 8, !tbaa !35
  %130 = call ptr @sk_SS_delete_ptr(ptr noundef %127, ptr noundef %129)
  store ptr %130, ptr %4, align 8, !tbaa !35
  %131 = load ptr, ptr %4, align 8, !tbaa !35
  %132 = call i32 @test_ptr(ptr noundef @.str.4, i32 noundef 327, ptr noundef @.str.48, ptr noundef %131)
  %133 = icmp ne i32 %132, 0
  br i1 %133, label %135, label %134

134:                                              ; preds = %125
  br label %171

135:                                              ; preds = %125
  %136 = load ptr, ptr %4, align 8, !tbaa !35
  call void @SS_free(ptr noundef %136)
  %137 = load ptr, ptr %1, align 8, !tbaa !33
  %138 = call i32 @sk_SS_num(ptr noundef %137)
  %139 = call i32 @test_int_eq(ptr noundef @.str.4, i32 noundef 330, ptr noundef @.str.45, ptr noundef @.str.56, i32 noundef %138, i32 noundef 9)
  %140 = icmp ne i32 %139, 0
  br i1 %140, label %142, label %141

141:                                              ; preds = %135
  br label %171

142:                                              ; preds = %135
  store i32 0, ptr %6, align 4, !tbaa !4
  br label %143

143:                                              ; preds = %167, %142
  %144 = load i32, ptr %6, align 4, !tbaa !4
  %145 = icmp slt i32 %144, 9
  br i1 %145, label %146, label %170

146:                                              ; preds = %143
  %147 = load ptr, ptr %1, align 8, !tbaa !33
  %148 = load i32, ptr %6, align 4, !tbaa !4
  %149 = call ptr @sk_SS_value(ptr noundef %147, i32 noundef %148)
  %150 = load i32, ptr %6, align 4, !tbaa !4
  %151 = icmp slt i32 %150, 3
  br i1 %151, label %152, label %154

152:                                              ; preds = %146
  %153 = load i32, ptr %6, align 4, !tbaa !4
  br label %157

154:                                              ; preds = %146
  %155 = load i32, ptr %6, align 4, !tbaa !4
  %156 = add nsw i32 1, %155
  br label %157

157:                                              ; preds = %154, %152
  %158 = phi i32 [ %153, %152 ], [ %156, %154 ]
  %159 = sext i32 %158 to i64
  %160 = getelementptr inbounds [10 x ptr], ptr %3, i64 0, i64 %159
  %161 = load ptr, ptr %160, align 8, !tbaa !35
  %162 = call i32 @test_ptr_eq(ptr noundef @.str.4, i32 noundef 333, ptr noundef @.str.57, ptr noundef @.str.58, ptr noundef %149, ptr noundef %161)
  %163 = icmp ne i32 %162, 0
  br i1 %163, label %166, label %164

164:                                              ; preds = %157
  %165 = load i32, ptr %6, align 4, !tbaa !4
  call void (ptr, i32, ptr, ...) @test_info(ptr noundef @.str.4, i32 noundef 334, ptr noundef @.str.59, i32 noundef %165)
  br label %171

166:                                              ; preds = %157
  br label %167

167:                                              ; preds = %166
  %168 = load i32, ptr %6, align 4, !tbaa !4
  %169 = add nsw i32 %168, 1
  store i32 %169, ptr %6, align 4, !tbaa !4
  br label %143, !llvm.loop !41

170:                                              ; preds = %143
  store i32 1, ptr %7, align 4, !tbaa !4
  br label %171

171:                                              ; preds = %170, %164, %141, %134, %119, %105, %91, %75, %67, %61, %44, %23
  %172 = load ptr, ptr %2, align 8, !tbaa !33
  call void @sk_SS_pop_free(ptr noundef %172, ptr noundef @SS_free)
  %173 = load ptr, ptr %1, align 8, !tbaa !33
  call void @sk_SS_pop_free(ptr noundef %173, ptr noundef @SS_free)
  %174 = load i32, ptr %7, align 4, !tbaa !4
  call void @llvm.lifetime.end.p0(i64 4, ptr %7) #5
  call void @llvm.lifetime.end.p0(i64 4, ptr %6) #5
  call void @llvm.lifetime.end.p0(i64 4, ptr %5) #5
  call void @llvm.lifetime.end.p0(i64 8, ptr %4) #5
  call void @llvm.lifetime.end.p0(i64 80, ptr %3) #5
  call void @llvm.lifetime.end.p0(i64 8, ptr %2) #5
  call void @llvm.lifetime.end.p0(i64 8, ptr %1) #5
  ret i32 %174
}