; Function Attrs: nounwind uwtable
define internal range(i32 0, 2) i32 @test_SS_stack() #0 {
  %1 = alloca [10 x ptr], align 16
  %2 = tail call ptr @OPENSSL_sk_new_null() #5
  call void @llvm.lifetime.start.p0(i64 80, ptr nonnull %1) #5
  br label %3

3:                                                ; preds = %0, %15
  %indvars.iv = phi i64 [ 0, %0 ], [ %indvars.iv.next, %15 ]
  %4 = tail call noalias ptr @CRYPTO_malloc(i64 noundef 8, ptr noundef nonnull @.str.4, i32 noundef 282) #5
  %5 = getelementptr inbounds nuw [10 x ptr], ptr %1, i64 0, i64 %indvars.iv
  store ptr %4, ptr %5, align 8, !tbaa !25
  %6 = tail call i32 @test_ptr(ptr noundef nonnull @.str.4, i32 noundef 284, ptr noundef nonnull @.str.44, ptr noundef %4) #5
  %.not56 = icmp eq i32 %6, 0
  br i1 %.not56, label %.loopexit, label %7

7:                                                ; preds = %3
  %8 = trunc nuw nsw i64 %indvars.iv to i32
  store i32 %8, ptr %4, align 4, !tbaa !27
  %9 = trunc i64 %indvars.iv to i8
  %10 = add nuw nsw i8 %9, 65
  %11 = getelementptr inbounds nuw i8, ptr %4, i64 4
  store i8 %10, ptr %11, align 4, !tbaa !29
  %12 = tail call i32 @OPENSSL_sk_num(ptr noundef %2) #5
  %13 = tail call i32 @test_int_eq(ptr noundef nonnull @.str.4, i32 noundef 288, ptr noundef nonnull @.str.45, ptr noundef nonnull @.str.8, i32 noundef %12, i32 noundef %8) #5
  %.not57 = icmp eq i32 %13, 0
  br i1 %.not57, label %14, label %15

14:                                               ; preds = %7
  tail call void (ptr, i32, ptr, ...) @test_info(ptr noundef nonnull @.str.4, i32 noundef 289, ptr noundef nonnull @.str.46, i32 noundef %8) #5
  br label %.loopexit

15:                                               ; preds = %7
  %16 = tail call i32 @OPENSSL_sk_push(ptr noundef %2, ptr noundef nonnull %4) #5
  %indvars.iv.next = add nuw nsw i64 %indvars.iv, 1
  %exitcond.not = icmp eq i64 %indvars.iv.next, 10
  br i1 %exitcond.not, label %17, label %3, !llvm.loop !30

17:                                               ; preds = %15
  %18 = tail call i32 @OPENSSL_sk_num(ptr noundef %2) #5
  %19 = tail call i32 @test_int_eq(ptr noundef nonnull @.str.4, i32 noundef 294, ptr noundef nonnull @.str.45, ptr noundef nonnull @.str.10, i32 noundef %18, i32 noundef 10) #5
  %.not = icmp eq i32 %19, 0
  br i1 %.not, label %.loopexit, label %20

20:                                               ; preds = %17
  %21 = tail call ptr @OPENSSL_sk_deep_copy(ptr noundef null, ptr noundef nonnull @SS_copy, ptr noundef nonnull @SS_free) #5
  %22 = tail call i32 @OPENSSL_sk_num(ptr noundef %21) #5
  %.not48 = icmp eq i32 %22, 0
  br i1 %.not48, label %23, label %.loopexit

23:                                               ; preds = %20
  tail call void @OPENSSL_sk_free(ptr noundef %21) #5
  %24 = tail call ptr @OPENSSL_sk_deep_copy(ptr noundef %2, ptr noundef nonnull @SS_copy, ptr noundef nonnull @SS_free) #5
  %25 = tail call i32 @test_ptr(ptr noundef nonnull @.str.4, i32 noundef 303, ptr noundef nonnull @.str.47, ptr noundef %24) #5
  %.not49 = icmp eq i32 %25, 0
  br i1 %.not49, label %.loopexit, label %.preheader58

.preheader58:                                     ; preds = %23, %44
  %indvars.iv76 = phi i64 [ %indvars.iv.next77, %44 ], [ 0, %23 ]
  %26 = trunc nuw nsw i64 %indvars.iv76 to i32
  %27 = tail call ptr @OPENSSL_sk_value(ptr noundef %24, i32 noundef range(i32 -2147483648, 10) %26) #5
  %28 = getelementptr inbounds nuw [10 x ptr], ptr %1, i64 0, i64 %indvars.iv76
  %29 = load ptr, ptr %28, align 8, !tbaa !25
  %30 = tail call i32 @test_ptr_ne(ptr noundef nonnull @.str.4, i32 noundef 307, ptr noundef nonnull @.str.48, ptr noundef nonnull @.str.44, ptr noundef %27, ptr noundef %29) #5
  %.not53 = icmp eq i32 %30, 0
  br i1 %.not53, label %31, label %32

31:                                               ; preds = %.preheader58
  tail call void (ptr, i32, ptr, ...) @test_info(ptr noundef nonnull @.str.4, i32 noundef 308, ptr noundef nonnull @.str.49, i32 noundef %26) #5
  br label %.loopexit

32:                                               ; preds = %.preheader58
  %33 = load i32, ptr %27, align 4, !tbaa !27
  %34 = load i32, ptr %29, align 4, !tbaa !27
  %35 = tail call i32 @test_int_eq(ptr noundef nonnull @.str.4, i32 noundef 311, ptr noundef nonnull @.str.50, ptr noundef nonnull @.str.51, i32 noundef %33, i32 noundef %34) #5
  %.not54 = icmp eq i32 %35, 0
  br i1 %.not54, label %36, label %37

36:                                               ; preds = %32
  tail call void (ptr, i32, ptr, ...) @test_info(ptr noundef nonnull @.str.4, i32 noundef 312, ptr noundef nonnull @.str.52, i32 noundef %26) #5
  br label %.loopexit

37:                                               ; preds = %32
  %38 = getelementptr inbounds nuw i8, ptr %27, i64 4
  %39 = load i8, ptr %38, align 4, !tbaa !29
  %40 = getelementptr inbounds nuw i8, ptr %29, i64 4
  %41 = load i8, ptr %40, align 4, !tbaa !29
  %42 = tail call i32 @test_char_eq(ptr noundef nonnull @.str.4, i32 noundef 315, ptr noundef nonnull @.str.53, ptr noundef nonnull @.str.54, i8 noundef signext %39, i8 noundef signext %41) #5
  %.not55 = icmp eq i32 %42, 0
  br i1 %.not55, label %43, label %44

43:                                               ; preds = %37
  tail call void (ptr, i32, ptr, ...) @test_info(ptr noundef nonnull @.str.4, i32 noundef 316, ptr noundef nonnull @.str.55, i32 noundef %26) #5
  br label %.loopexit

44:                                               ; preds = %37
  %indvars.iv.next77 = add nuw nsw i64 %indvars.iv76, 1
  %exitcond79.not = icmp eq i64 %indvars.iv.next77, 10
  br i1 %exitcond79.not, label %45, label %.preheader58, !llvm.loop !31

45:                                               ; preds = %44
  tail call void @OPENSSL_sk_pop_free(ptr noundef %24, ptr noundef nonnull @SS_free) #5
  %46 = getelementptr inbounds nuw i8, ptr %1, i64 24
  %47 = load ptr, ptr %46, align 8, !tbaa !25
  %48 = tail call ptr @OPENSSL_sk_delete_ptr(ptr noundef %2, ptr noundef %47) #5
  %49 = tail call i32 @test_ptr(ptr noundef nonnull @.str.4, i32 noundef 327, ptr noundef nonnull @.str.48, ptr noundef %48) #5
  %.not50 = icmp eq i32 %49, 0
  br i1 %.not50, label %.loopexit, label %50

50:                                               ; preds = %45
  tail call void @CRYPTO_free(ptr noundef %48, ptr noundef nonnull @.str.4, i32 noundef 268) #5
  %51 = tail call i32 @OPENSSL_sk_num(ptr noundef %2) #5
  %52 = tail call i32 @test_int_eq(ptr noundef nonnull @.str.4, i32 noundef 330, ptr noundef nonnull @.str.45, ptr noundef nonnull @.str.56, i32 noundef %51, i32 noundef 9) #5
  %.not51 = icmp eq i32 %52, 0
  br i1 %.not51, label %.loopexit, label %.preheader

.preheader:                                       ; preds = %50, %53
  %.2 = phi i32 [ %56, %53 ], [ 0, %50 ]
  %exitcond80.not = icmp eq i32 %.2, 9
  br i1 %exitcond80.not, label %.loopexit, label %53

53:                                               ; preds = %.preheader
  %54 = tail call ptr @OPENSSL_sk_value(ptr noundef %2, i32 noundef range(i32 -2147483648, 10) %.2) #5
  %55 = icmp samesign ult i32 %.2, 3
  %56 = add nuw nsw i32 %.2, 1
  %57 = select i1 %55, i32 %.2, i32 %56
  %58 = zext nneg i32 %57 to i64
  %59 = getelementptr inbounds nuw [10 x ptr], ptr %1, i64 0, i64 %58
  %60 = load ptr, ptr %59, align 8, !tbaa !25
  %61 = tail call i32 @test_ptr_eq(ptr noundef nonnull @.str.4, i32 noundef 333, ptr noundef nonnull @.str.57, ptr noundef nonnull @.str.58, ptr noundef %54, ptr noundef %60) #5
  %.not52 = icmp eq i32 %61, 0
  br i1 %.not52, label %62, label %.preheader, !llvm.loop !32

62:                                               ; preds = %53
  tail call void (ptr, i32, ptr, ...) @test_info(ptr noundef nonnull @.str.4, i32 noundef 334, ptr noundef nonnull @.str.59, i32 noundef %.2) #5
  br label %.loopexit

.loopexit:                                        ; preds = %3, %.preheader, %50, %45, %23, %20, %17, %62, %43, %36, %31, %14
  %.047 = phi ptr [ null, %14 ], [ %21, %20 ], [ %24, %43 ], [ %24, %36 ], [ %24, %31 ], [ null, %62 ], [ null, %50 ], [ null, %45 ], [ %24, %23 ], [ null, %17 ], [ null, %.preheader ], [ null, %3 ]
  %.0 = phi i32 [ 0, %14 ], [ 0, %20 ], [ 0, %43 ], [ 0, %36 ], [ 0, %31 ], [ 0, %62 ], [ 0, %50 ], [ 0, %45 ], [ 0, %23 ], [ 0, %17 ], [ 1, %.preheader ], [ 0, %3 ]
  tail call void @OPENSSL_sk_pop_free(ptr noundef %.047, ptr noundef nonnull @SS_free) #5
  tail call void @OPENSSL_sk_pop_free(ptr noundef %2, ptr noundef nonnull @SS_free) #5
  call void @llvm.lifetime.end.p0(i64 80, ptr nonnull %1) #5
  ret i32 %.0
}